(dp0
S'angles'
p1
(dp2
S'amide-mhead2-tail'
p3
(F107.0
F5.285
tp4
sS'ring1-chead-ring2'
p5
(F56.326
F1132.5681907540516
tp6
sS'tail-tail-tail'
p7
(F158.0
F56.97
tp8
sS'ring1-ring2-ring3'
p9
(F54.019
F2678.769981609583
tp10
sS'ring2-ring3-chme'
p11
(F133.183
F77.47422986027716
tp12
sS'ring1-ring3-ring4'
p13
(F81.133
F1329.5365717547566
tp14
sS'mhead2-tail-oh3-a'
p15
(F52.156
I231
tp16
sS'ring1-ring3-ring2'
p17
(F53.386
F2787.102591159971
tp18
sS'ring4-ring3-chme'
p19
(F53.591
F671.6621792124029
tp20
sS'mhead2-tail-oh3-b'
p21
(F77.332
I320
tp22
sS'ring1-ring4-ring3'
p23
(F52.465
F2675.4871752595714
tp24
sS'chead-ring2-ring3'
p25
(F139.446
F597.4707557021375
tp26
sS'chead-ring2-ring1'
p27
(F85.449
F1011.1043558036172
tp28
sS'mhead2-amide-tail'
p29
(F106.0
F29.0
tp30
sS'amide-mhead2-oh1'
p31
(F109.0
F8.388
tp32
sS'amide-mhead2-oh2'
p33
(F105.0
F10.759
tp34
sS'chead-ring2-chme'
p35
(F92.779
F75.50454605027011
tp36
sS'ring4-ctail-cterm'
p37
(F125.028
F7.550454605027012
tp38
sS'ring2-ring1-ring4'
p39
(F115.083
F663.1268827023723
tp40
sS'ring3-ring1-ring4'
p41
(F44.826
F3617.652597712942
tp42
sS'ring2-ring3-ring4'
p43
(F133.371
F446.46166360159725
tp44
sS'ring1-ring3-chme'
p45
(F95.501
F354.5430858012684
tp46
sS'ring3-ring2-chme'
p47
(F60.855
F436.613244551562
tp48
sS'mhead2-tail-tail'
p49
(F158.0
F6.33
tp50
sS'ring3-ring2-ring4'
p51
g42
sS'ring1-ring2-chme'
p52
(F49.707
F643.4300446023019
tp53
sS'amide-tail-tail'
p54
g50
sS'oh1-mhead2-tail'
p55
(F128.0
F5.671
tp56
sS'ring3-ring4-ctail'
p57
(F94.433
F276.08401403598765
tp58
sS'ring2-ring1-ring3'
p59
(F70.993
F1322.970959054733
tp60
sS'oh2-mhead2-tail'
p61
(F69.0
F361.765
tp62
sS'chead-ring1-ring4'
p63
(F151.233
F351.2602794512566
tp64
sS'head-tail-tail'
p65
(F148.0
F11.63
tp66
sS'chead-ring1-ring3'
p67
(F144.251
F180.22606861564475
tp68
sS'chead-ring1-ring2'
p69
(F36.668
F2941.3944896105227
tp70
sS'ring1-ring4-ctail'
p71
(F144.251
F180.22606861564475
tp72
sS'tail-tail-oh3'
p73
(F143.77229953217747
I54
tp74
sS'oh1-mhead2-oh2'
p75
(F115.0
F12.22
tp76
sS'ter2-tail-tail'
p77
(F155.0
F7.93
tp78
ssS'bonds'
p79
(dp80
S'tail-tail'
p81
(F3.92
F20.928
tp82
sS'ring1-ring4'
p83
(F4.476
F152.1
tp84
sS'ring1-ring2'
p85
(F3.574
F324.1
tp86
sS'mhead2-oh1'
p87
(F2.326
F45.307
tp88
sS'ring1-ring3'
p89
(F3.603
F352.3
tp90
sS'mhead2-oh2'
p91
(F2.067
F151.987
tp92
sS'ring3-chme'
p93
(F2.658
F116.2
tp94
sS'mhead2-tail'
p95
(F3.62
F27.575
tp96
sS'chead-ring1'
p97
(F4.269
F125.5
tp98
sS'head-tail'
p99
(F3.28
F24.296
tp100
sS'tail-oh3'
p101
(F2.4
I93
tp102
sS'ter2-tail'
p103
(F3.41
F35.576
tp104
sS'ring2-chme'
p105
(F2.371
F65.4
tp106
sS'ring3-ring4'
p107
(F3.205
F362.6
tp108
sS'amide-mhead2'
p109
(F2.92
F190.045
tp110
sS'ctail-cterm'
p111
(F4.22
F13.2
tp112
sS'ring2-ring3'
p113
(F4.203
F132.2
tp114
sS'chead-ring2'
p115
(F2.583
F245.9
tp116
sS'ring4-ctail'
p117
(F3.693
F50.3
tp118
sS'amide-tail'
p119
(F3.01
F103.857
tp120
ss.